; Function Attrs: mustprogress nounwind uwtable
define dso_local noundef i64 @_ZN4llvm10sampleprof32SampleProfileWriterExtBinaryBase16markSectionStartENS0_7SecTypeEj(ptr nocapture noundef nonnull align 8 dereferenceable(576) %0, i32 noundef %1, i32 noundef %2) local_unnamed_addr #2 align 2 {
  %4 = getelementptr inbounds nuw i8, ptr %0, i64 16
  %5 = load ptr, ptr %4, align 8
  %6 = load ptr, ptr %5, align 8
  %7 = getelementptr inbounds i8, ptr %6, i64 80
  %8 = load ptr, ptr %7, align 8
  %9 = tail call noundef i64 %8(ptr noundef nonnull align 8 dereferenceable(48) %5) #22
  %10 = getelementptr inbounds nuw i8, ptr %5, i64 32
  %11 = load ptr, ptr %10, align 8
  %12 = getelementptr inbounds nuw i8, ptr %5, i64 16
  %13 = load ptr, ptr %12, align 8
  %14 = getelementptr inbounds nuw i8, ptr %0, i64 88
  %15 = zext i32 %2 to i64
  %16 = load ptr, ptr %14, align 8
  %17 = getelementptr %"struct.llvm::sampleprof::SecHdrTableEntry", ptr %16, i64 %15, i32 1
  %.val3 = load i64, ptr %17, align 8
  %18 = and i64 %.val3, 1
  %.not = icmp eq i64 %18, 0
  br i1 %.not, label %23, label %19

19:                                               ; preds = %3
  %20 = getelementptr inbounds nuw i8, ptr %0, i64 432
  %21 = load ptr, ptr %20, align 8
  %22 = load ptr, ptr %4, align 8
  store ptr %22, ptr %20, align 8
  store ptr %21, ptr %4, align 8
  br label %23

23:                                               ; preds = %19, %3
  %24 = ptrtoint ptr %11 to i64
  %25 = add i64 %9, %24
  %26 = ptrtoint ptr %13 to i64
  %27 = sub i64 %25, %26
  ret i64 %27
}